Certificate:
    Data:
        Version: 3 (0x2)
        Serial Number: 288 (0x120)
    Signature Algorithm: sha1WithRSAEncryption
        Issuer: C=US, ST=CA, L=Palo Alto, O=Velocloud Networks Inc., OU=Development, CN=ROOTCA
        Validity
            Not Before: May 30 02:18:56 2013 GMT
            Not After : May 28 02:18:56 2023 GMT
        Subject: C=US, ST=CA, L=Palo Alto, O=Velocloud Networks Inc., OU=Development, CN=00:00:00:00:00:00
        Subject Public Key Info:
            Public Key Algorithm: rsaEncryption
                Public-Key: (2048 bit)
                Modulus:
                    00:e5:3e:ac:97:41:02:db:84:6b:d7:b2:44:58:ac:
                    ac:6d:7e:bd:ab:10:e4:f0:13:6b:b1:5c:27:38:04:
                    96:9f:26:f5:bd:a2:da:2b:87:39:83:38:ea:f3:d9:
                    e9:ec:58:cf:0c:74:61:c6:22:cf:9c:19:4e:ed:2c:
                    b6:53:6e:d3:e7:79:da:77:19:a3:33:5a:1b:32:46:
                    b5:a8:40:1a:ce:38:65:bd:c5:52:bf:e5:f1:2d:66:
                    c4:72:de:7a:9f:9f:ea:44:0a:a5:c9:f3:4b:c7:65:
                    20:ed:0b:e0:c4:93:68:dc:12:4b:8b:43:76:8f:75:
                    70:75:c1:5f:95:76:b0:9e:c4:86:00:67:a2:53:2f:
                    c7:a7:b9:f3:60:12:a0:01:8a:7f:03:a7:22:eb:e7:
                    2a:5f:a5:34:d8:f2:bc:43:e6:6b:42:28:b2:92:1f:
                    bc:3d:12:da:53:f9:83:05:b4:f3:e5:24:53:5c:cc:
                    66:ce:02:3b:76:3f:1c:2f:cd:db:94:4a:96:ea:a3:
                    71:93:92:62:8f:e4:e9:c1:c0:40:e4:fe:64:52:89:
                    fb:6d:7f:8b:20:bb:96:ac:44:93:d1:0e:4a:00:0b:
                    3a:b0:fc:f1:d2:0e:4f:a3:d0:05:d7:d8:3b:5b:ae:
                    14:1f:de:f4:41:c9:cb:a0:40:3f:f8:28:9f:4a:d6:
                    12:1b
                Exponent: 65537 (0x10001)
        X509v3 extensions:
            X509v3 Basic Constraints: 
                CA:FALSE
            Netscape Comment: 
                OpenSSL Generated Certificate
            X509v3 Subject Key Identifier: 
                4A:08:5E:20:E2:36:37:16:EC:24:09:C8:77:B8:FE:11:AD:03:16:10
            X509v3 Authority Key Identifier: 
                keyid:8D:3F:01:54:57:F4:3B:FA:9B:70:53:EE:D8:87:D5:CE:28:2C:28:8C

    Signature Algorithm: sha1WithRSAEncryption
         38:93:3c:b5:eb:67:7a:a1:4d:2f:43:72:4b:92:72:2e:05:00:
         71:80:c6:51:1f:64:9a:b1:58:c3:8e:2d:a9:f4:5a:3d:68:0e:
         6c:05:fa:c9:66:aa:28:68:54:f7:be:6c:1e:d5:b2:d4:95:98:
         9c:39:23:29:32:e4:4d:a1:fe:2d:e6:54:ff:78:99:fb:5d:72:
         cb:7e:ec:9e:6c:23:6b:5d:88:fa:26:16:bb:42:97:9f:f7:6e:
         79:52:79:6f:d2:1a:dd:e0:7c:e7:86:bc:a7:ef:9e:26:57:07:
         3f:58:7c:57:7f:fa:ec:d5:27:41:4a:62:1e:39:04:d1:08:dc:
         4f:ea:72:eb:fd:df:05:ad:99:13:88:ae:3c:72:b7:ad:79:a8:
         29:cd:d1:4b:0d:12:00:e1:e7:6d:36:99:df:1e:ee:18:bb:fc:
         ed:f9:76:75:15:8d:d6:dc:d8:39:27:73:22:12:62:a1:2e:b5:
         b1:4b:97:0b:24:1b:34:ff:d7:d9:eb:b8:10:f4:60:5b:df:9c:
         d7:b9:36:4a:be:fd:44:2a:94:86:f2:ce:4a:00:c6:92:9b:11:
         3f:a3:c1:30:94:b6:a5:b7:ef:67:23:fb:c4:43:a2:d0:41:38:
         27:48:f9:cb:6d:34:1b:5a:bb:50:c9:7a:88:52:b2:30:c9:e7:
         65:7d:33:36
-----BEGIN CERTIFICATE-----
MIID8TCCAtmgAwIBAgICASAwDQYJKoZIhvcNAQEFBQAwdzELMAkGA1UEBhMCVVMx
CzAJBgNVBAgMAkNBMRIwEAYDVQQHDAlQYWxvIEFsdG8xIDAeBgNVBAoMF1ZlbG9j
bG91ZCBOZXR3b3JrcyBJbmMuMRQwEgYDVQQLDAtEZXZlbG9wbWVudDEPMA0GA1UE
AwwGUk9PVENBMB4XDTEzMDUzMDAyMTg1NloXDTIzMDUyODAyMTg1NlowgYIxCzAJ
BgNVBAYTAlVTMQswCQYDVQQIDAJDQTESMBAGA1UEBwwJUGFsbyBBbHRvMSAwHgYD
VQQKDBdWZWxvY2xvdWQgTmV0d29ya3MgSW5jLjEUMBIGA1UECwwLRGV2ZWxvcG1l
bnQxGjAYBgNVBAMMETAwOjAwOjAwOjAwOjAwOjAwMIIBIjANBgkqhkiG9w0BAQEF
AAOCAQ8AMIIBCgKCAQEA5T6sl0EC24Rr17JEWKysbX69qxDk8BNrsVwnOASWnyb1
vaLaK4c5gzjq89np7FjPDHRhxiLPnBlO7Sy2U27T53nadxmjM1obMka1qEAazjhl
vcVSv+XxLWbEct56n5/qRAqlyfNLx2Ug7QvgxJNo3BJLi0N2j3VwdcFflXawnsSG
AGeiUy/Hp7nzYBKgAYp/A6ci6+cqX6U02PK8Q+ZrQiiykh+8PRLaU/mDBbTz5SRT
XMxmzgI7dj8cL83blEqW6qNxk5Jij+TpwcBA5P5kUon7bX+LILuWrEST0Q5KAAs6
sPzx0g5Po9AF19g7W64UH970QcnLoEA/+CifStYSGwIDAQABo3sweTAJBgNVHRME
AjAAMCwGCWCGSAGG+EIBDQQfFh1PcGVuU1NMIEdlbmVyYXRlZCBDZXJ0aWZpY2F0
ZTAdBgNVHQ4EFgQUSgheIOI2NxbsJAnId7j+Ea0DFhAwHwYDVR0jBBgwFoAUjT8B
VFf0O/qbcFPu2IfVzigsKIwwDQYJKoZIhvcNAQEFBQADggEBADiTPLXrZ3qhTS9D
ckuSci4FAHGAxlEfZJqxWMOOLan0Wj1oDmwF+slmqihoVPe+bB7VstSVmJw5Iyky
5E2h/i3mVP94mftdcst+7J5sI2tdiPomFrtCl5/3bnlSeW/SGt3gfOeGvKfvniZX
Bz9YfFd/+uzVJ0FKYh45BNEI3E/qcuv93wWtmROIrjxyt615qCnN0UsNEgDh5202
md8e7hi7/O35dnUVjdbc2DkncyISYqEutbFLlwskGzT/19nruBD0YFvfnNe5Nkq+
/UQqlIbyzkoAxpKbET+jwTCUtqW372cj+8RDotBBOCdI+cttNBtau1DJeohSsjDJ
52V9MzY=
-----END CERTIFICATE-----
